; ModuleID = '51/494.c'
source_filename = "51/494.c"
target datalayout = "e-m:e-p270:32:32-p271:32:32-p272:64:64-i64:64-f80:128-n8:16:32:64-S128"
target triple = "x86_64-pc-linux-gnu"

@.str = private unnamed_addr constant [3 x i8] c"%d\00", align 1
@.str.1 = private unnamed_addr constant [3 x i8] c"%s\00", align 1
@.str.2 = private unnamed_addr constant [3 x i8] c"NO\00", align 1
@.str.3 = private unnamed_addr constant [4 x i8] c"%d\0A\00", align 1
@.str.4 = private unnamed_addr constant [4 x i8] c"%s\0A\00", align 1

; Function Attrs: noinline nounwind uwtable
define dso_local i32 @main() #0 {
  %1 = alloca i32, align 4
  %2 = alloca [500 x i8], align 16
  %3 = alloca [500 x [6 x i8]], align 16
  %4 = alloca [500 x i32], align 16
  %5 = alloca i32, align 4
  %6 = alloca i32, align 4
  %7 = alloca i32, align 4
  %8 = alloca i32, align 4
  %9 = alloca i32, align 4
  %10 = alloca [6 x i8], align 1
  %11 = alloca i32, align 4
  %12 = alloca i32, align 4
  store i32 0, i32* %1, align 4
  %13 = bitcast [500 x i32]* %4 to i8*
  call void @llvm.memset.p0i8.i64(i8* align 16 %13, i8 0, i64 2000, i1 false)
  store i32 0, i32* %8, align 4
  %14 = call i32 (i8*, ...) @__isoc99_scanf(i8* getelementptr inbounds ([3 x i8], [3 x i8]* @.str, i64 0, i64 0), i32* %6)
  %15 = getelementptr inbounds [500 x i8], [500 x i8]* %2, i64 0, i64 0
  %16 = call i32 (i8*, ...) @__isoc99_scanf(i8* getelementptr inbounds ([3 x i8], [3 x i8]* @.str.1, i64 0, i64 0), i8* %15)
  %17 = getelementptr inbounds [500 x i8], [500 x i8]* %2, i64 0, i64 0
  %18 = call i64 @strlen(i8* %17) #4
  %19 = trunc i64 %18 to i32
  store i32 %19, i32* %9, align 4
  store i32 0, i32* %5, align 4
  br label %20

20:                                               ; preds = %102, %0
  %21 = load i32, i32* %5, align 4
  %22 = load i32, i32* %9, align 4
  %23 = load i32, i32* %6, align 4
  %24 = sub nsw i32 %22, %23
  %25 = add nsw i32 %24, 1
  %26 = icmp slt i32 %21, %25
  br i1 %26, label %27, label %105

27:                                               ; preds = %20
  store i32 0, i32* %7, align 4
  br label %28

28:                                               ; preds = %42, %27
  %29 = load i32, i32* %7, align 4
  %30 = load i32, i32* %6, align 4
  %31 = icmp slt i32 %29, %30
  br i1 %31, label %32, label %45

32:                                               ; preds = %28
  %33 = load i32, i32* %5, align 4
  %34 = load i32, i32* %7, align 4
  %35 = add nsw i32 %33, %34
  %36 = sext i32 %35 to i64
  %37 = getelementptr inbounds [500 x i8], [500 x i8]* %2, i64 0, i64 %36
  %38 = load i8, i8* %37, align 1
  %39 = load i32, i32* %7, align 4
  %40 = sext i32 %39 to i64
  %41 = getelementptr inbounds [6 x i8], [6 x i8]* %10, i64 0, i64 %40
  store i8 %38, i8* %41, align 1
  br label %42

42:                                               ; preds = %32
  %43 = load i32, i32* %7, align 4
  %44 = add nsw i32 %43, 1
  store i32 %44, i32* %7, align 4
  br label %28

45:                                               ; preds = %28
  %46 = load i32, i32* %7, align 4
  %47 = sext i32 %46 to i64
  %48 = getelementptr inbounds [6 x i8], [6 x i8]* %10, i64 0, i64 %47
  store i8 0, i8* %48, align 1
  store i32 0, i32* %11, align 4
  store i32 0, i32* %7, align 4
  br label %49

49:                                               ; preds = %68, %45
  %50 = load i32, i32* %7, align 4
  %51 = load i32, i32* %8, align 4
  %52 = icmp slt i32 %50, %51
  br i1 %52, label %53, label %71

53:                                               ; preds = %49
  %54 = load i32, i32* %7, align 4
  %55 = sext i32 %54 to i64
  %56 = getelementptr inbounds [500 x [6 x i8]], [500 x [6 x i8]]* %3, i64 0, i64 %55
  %57 = getelementptr inbounds [6 x i8], [6 x i8]* %56, i64 0, i64 0
  %58 = getelementptr inbounds [6 x i8], [6 x i8]* %10, i64 0, i64 0
  %59 = call i32 @strcmp(i8* %57, i8* %58) #4
  %60 = icmp eq i32 %59, 0
  br i1 %60, label %61, label %67

61:                                               ; preds = %53
  store i32 1, i32* %11, align 4
  %62 = load i32, i32* %7, align 4
  %63 = sext i32 %62 to i64
  %64 = getelementptr inbounds [500 x i32], [500 x i32]* %4, i64 0, i64 %63
  %65 = load i32, i32* %64, align 4
  %66 = add nsw i32 %65, 1
  store i32 %66, i32* %64, align 4
  br label %71

67:                                               ; preds = %53
  br label %68

68:                                               ; preds = %67
  %69 = load i32, i32* %7, align 4
  %70 = add nsw i32 %69, 1
  store i32 %70, i32* %7, align 4
  br label %49

71:                                               ; preds = %61, %49
  %72 = load i32, i32* %11, align 4
  %73 = icmp eq i32 %72, 0
  br i1 %73, label %74, label %101

74:                                               ; preds = %71
  store i32 0, i32* %7, align 4
  br label %75

75:                                               ; preds = %90, %74
  %76 = load i32, i32* %7, align 4
  %77 = load i32, i32* %6, align 4
  %78 = icmp sle i32 %76, %77
  br i1 %78, label %79, label %93

79:                                               ; preds = %75
  %80 = load i32, i32* %7, align 4
  %81 = sext i32 %80 to i64
  %82 = getelementptr inbounds [6 x i8], [6 x i8]* %10, i64 0, i64 %81
  %83 = load i8, i8* %82, align 1
  %84 = load i32, i32* %8, align 4
  %85 = sext i32 %84 to i64
  %86 = getelementptr inbounds [500 x [6 x i8]], [500 x [6 x i8]]* %3, i64 0, i64 %85
  %87 = load i32, i32* %7, align 4
  %88 = sext i32 %87 to i64
  %89 = getelementptr inbounds [6 x i8], [6 x i8]* %86, i64 0, i64 %88
  store i8 %83, i8* %89, align 1
  br label %90

90:                                               ; preds = %79
  %91 = load i32, i32* %7, align 4
  %92 = add nsw i32 %91, 1
  store i32 %92, i32* %7, align 4
  br label %75

93:                                               ; preds = %75
  %94 = load i32, i32* %8, align 4
  %95 = sext i32 %94 to i64
  %96 = getelementptr inbounds [500 x i32], [500 x i32]* %4, i64 0, i64 %95
  %97 = load i32, i32* %96, align 4
  %98 = add nsw i32 %97, 1
  store i32 %98, i32* %96, align 4
  %99 = load i32, i32* %8, align 4
  %100 = add nsw i32 %99, 1
  store i32 %100, i32* %8, align 4
  br label %101

101:                                              ; preds = %93, %71
  br label %102

102:                                              ; preds = %101
  %103 = load i32, i32* %5, align 4
  %104 = add nsw i32 %103, 1
  store i32 %104, i32* %5, align 4
  br label %20

105:                                              ; preds = %20
  store i32 0, i32* %12, align 4
  store i32 0, i32* %5, align 4
  br label %106

106:                                              ; preds = %123, %105
  %107 = load i32, i32* %5, align 4
  %108 = load i32, i32* %8, align 4
  %109 = icmp slt i32 %107, %108
  br i1 %109, label %110, label %126

110:                                              ; preds = %106
  %111 = load i32, i32* %5, align 4
  %112 = sext i32 %111 to i64
  %113 = getelementptr inbounds [500 x i32], [500 x i32]* %4, i64 0, i64 %112
  %114 = load i32, i32* %113, align 4
  %115 = load i32, i32* %12, align 4
  %116 = icmp sgt i32 %114, %115
  br i1 %116, label %117, label %122

117:                                              ; preds = %110
  %118 = load i32, i32* %5, align 4
  %119 = sext i32 %118 to i64
  %120 = getelementptr inbounds [500 x i32], [500 x i32]* %4, i64 0, i64 %119
  %121 = load i32, i32* %120, align 4
  store i32 %121, i32* %12, align 4
  br label %122

122:                                              ; preds = %117, %110
  br label %123

123:                                              ; preds = %122
  %124 = load i32, i32* %5, align 4
  %125 = add nsw i32 %124, 1
  store i32 %125, i32* %5, align 4
  br label %106

126:                                              ; preds = %106
  %127 = load i32, i32* %12, align 4
  %128 = icmp eq i32 %127, 1
  br i1 %128, label %129, label %131

129:                                              ; preds = %126
  %130 = call i32 (i8*, ...) @printf(i8* getelementptr inbounds ([3 x i8], [3 x i8]* @.str.2, i64 0, i64 0))
  store i32 0, i32* %1, align 4
  br label %156

131:                                              ; preds = %126
  %132 = load i32, i32* %12, align 4
  %133 = call i32 (i8*, ...) @printf(i8* getelementptr inbounds ([4 x i8], [4 x i8]* @.str.3, i64 0, i64 0), i32 %132)
  store i32 0, i32* %5, align 4
  br label %134

134:                                              ; preds = %152, %131
  %135 = load i32, i32* %5, align 4
  %136 = load i32, i32* %8, align 4
  %137 = icmp slt i32 %135, %136
  br i1 %137, label %138, label %155

138:                                              ; preds = %134
  %139 = load i32, i32* %5, align 4
  %140 = sext i32 %139 to i64
  %141 = getelementptr inbounds [500 x i32], [500 x i32]* %4, i64 0, i64 %140
  %142 = load i32, i32* %141, align 4
  %143 = load i32, i32* %12, align 4
  %144 = icmp eq i32 %142, %143
  br i1 %144, label %145, label %151

145:                                              ; preds = %138
  %146 = load i32, i32* %5, align 4
  %147 = sext i32 %146 to i64
  %148 = getelementptr inbounds [500 x [6 x i8]], [500 x [6 x i8]]* %3, i64 0, i64 %147
  %149 = getelementptr inbounds [6 x i8], [6 x i8]* %148, i64 0, i64 0
  %150 = call i32 (i8*, ...) @printf(i8* getelementptr inbounds ([4 x i8], [4 x i8]* @.str.4, i64 0, i64 0), i8* %149)
  br label %151

151:                                              ; preds = %145, %138
  br label %152

152:                                              ; preds = %151
  %153 = load i32, i32* %5, align 4
  %154 = add nsw i32 %153, 1
  store i32 %154, i32* %5, align 4
  br label %134

155:                                              ; preds = %134
  store i32 0, i32* %1, align 4
  br label %156

156:                                              ; preds = %155, %129
  %157 = load i32, i32* %1, align 4
  ret i32 %157
}

; Function Attrs: argmemonly nounwind willreturn
declare void @llvm.memset.p0i8.i64(i8* nocapture writeonly, i8, i64, i1 immarg) #1

declare dso_local i32 @__isoc99_scanf(i8*, ...) #2

; Function Attrs: nounwind readonly
declare dso_local i64 @strlen(i8*) #3

; Function Attrs: nounwind readonly
declare dso_local i32 @strcmp(i8*, i8*) #3

declare dso_local i32 @printf(i8*, ...) #2


!llvm.module.flags = !{!0}
!llvm.ident = !{!1}

!0 = !{i32 1, !"wchar_size", i32 4}
!1 = !{!"clang version 10.0.0-4ubuntu1 "}
